target datalayout = "e-m:e-p270:32:32-p271:32:32-p272:64:64-i64:64-i128:128-f80:128-n8:16:32:64-S128"
target triple = "x86_64-unknown-linux-gnu"

%"class.Imath_3_2::Box" = type { %"class.Imath_3_2::Vec2", %"class.Imath_3_2::Vec2" }
%"class.Imath_3_2::Vec2" = type { i32, i32 }

; Function Attrs: mustprogress uwtable
define noundef i32 @_ZN7Imf_3_210Compressor14uncompressTileEPKciN9Imath_3_23BoxINS3_4Vec2IiEEEERS2_(ptr noundef nonnull align 8 dereferenceable(16) %this, ptr noundef %inPtr, i32 noundef %inSize, ptr noundef %range, ptr noundef nonnull align 8 dereferenceable(8) %outPtr) unnamed_addr #6 align 2 {
entry:
  %this.addr = alloca ptr, align 8
  %inPtr.addr = alloca ptr, align 8
  %inSize.addr = alloca i32, align 4
  %range.indirect_addr = alloca ptr, align 8
  %outPtr.addr = alloca ptr, align 8
  store ptr %this, ptr %this.addr, align 8
  store ptr %inPtr, ptr %inPtr.addr, align 8
  store i32 %inSize, ptr %inSize.addr, align 4
  store ptr %range, ptr %range.indirect_addr, align 8
  store ptr %outPtr, ptr %outPtr.addr, align 8
  %this1 = load ptr, ptr %this.addr, align 8
  %0 = load ptr, ptr %inPtr.addr, align 8
  %1 = load i32, ptr %inSize.addr, align 4
  %min = getelementptr inbounds %"class.Imath_3_2::Box", ptr %range, i32 0, i32 0
  %y = getelementptr inbounds %"class.Imath_3_2::Vec2", ptr %min, i32 0, i32 1
  %2 = load i32, ptr %y, align 4
  %3 = load ptr, ptr %outPtr.addr, align 8
  %vtable = load ptr, ptr %this1, align 8
  %vfn = getelementptr inbounds ptr, ptr %vtable, i64 6
  %4 = load ptr, ptr %vfn, align 8
  %call = call noundef i32 %4(ptr noundef nonnull align 8 dereferenceable(16) %this1, ptr noundef %0, i32 noundef %1, i32 noundef %2, ptr noundef nonnull align 8 dereferenceable(8) %3)
  ret i32 %call
}